target datalayout = "e-m:e-p270:32:32-p271:32:32-p272:64:64-i64:64-i128:128-f80:128-n8:16:32:64-S128"
target triple = "x86_64-pc-linux-gnu"

%union.pthread_mutex_t = type { %struct.__pthread_mutex_s }
%struct.__pthread_mutex_s = type { i32, i32, i32, i32, i32, i16, i16, %struct.__pthread_internal_list }
%struct.__pthread_internal_list = type { ptr, ptr }
%"class.std::__mutex_base" = type { %union.pthread_mutex_t }
%"class.std::lock_guard.38" = type { ptr }

@_ZN6googleL9log_mutexE = internal global { %union.pthread_mutex_t } zeroinitializer, align 8
@_ZN3fLI21FLAGS_stderrthresholdE = external global i32, align 4

; Function Attrs: inlinehint mustprogress nounwind uwtable
define internal noundef i32 @_ZL18__gthread_active_pv() #8 {
  ret i32 1
}

; Function Attrs: inlinehint mustprogress nounwind uwtable
define internal noundef i32 @_ZL22__gthread_mutex_unlockP15pthread_mutex_t(ptr noundef %0) #8 {
  %2 = alloca i32, align 4
  %3 = alloca ptr, align 8
  store ptr %0, ptr %3, align 8, !tbaa !8
  %4 = call noundef i32 @_ZL18__gthread_active_pv()
  %5 = icmp ne i32 %4, 0
  br i1 %5, label %6, label %9

6:                                                ; preds = %1
  %7 = load ptr, ptr %3, align 8, !tbaa !8
  %8 = call i32 @pthread_mutex_unlock(ptr noundef %7) #5
  store i32 %8, ptr %2, align 4
  br label %10

9:                                                ; preds = %1
  store i32 0, ptr %2, align 4
  br label %10

10:                                               ; preds = %9, %6
  %11 = load i32, ptr %2, align 4
  ret i32 %11
}

; Function Attrs: inlinehint mustprogress nounwind uwtable
define internal noundef i32 @_ZL20__gthread_mutex_lockP15pthread_mutex_t(ptr noundef %0) #8 {
  %2 = alloca i32, align 4
  %3 = alloca ptr, align 8
  store ptr %0, ptr %3, align 8, !tbaa !8
  %4 = call noundef i32 @_ZL18__gthread_active_pv()
  %5 = icmp ne i32 %4, 0
  br i1 %5, label %6, label %9

6:                                                ; preds = %1
  %7 = load ptr, ptr %3, align 8, !tbaa !8
  %8 = call i32 @pthread_mutex_lock(ptr noundef %7) #5
  store i32 %8, ptr %2, align 4
  br label %10

9:                                                ; preds = %1
  store i32 0, ptr %2, align 4
  br label %10

10:                                               ; preds = %9, %6
  %11 = load i32, ptr %2, align 4
  ret i32 %11
}

; Function Attrs: noinline noreturn nounwind uwtable
define linkonce_odr hidden void @__clang_call_terminate(ptr noundef %0) #6 comdat {
  %2 = call ptr @__cxa_begin_catch(ptr %0) #5
  call void @_ZSt9terminatev() #33
  unreachable
}

; Function Attrs: mustprogress uwtable
define linkonce_odr hidden void @_ZNSt5mutex6unlockEv(ptr noundef nonnull align 8 dereferenceable(40) %0) #0 comdat align 2 {
  %2 = alloca ptr, align 8
  store ptr %0, ptr %2, align 8, !tbaa !166
  %3 = load ptr, ptr %2, align 8
  %4 = getelementptr inbounds nuw %"class.std::__mutex_base", ptr %3, i32 0, i32 0
  %5 = call noundef i32 @_ZL22__gthread_mutex_unlockP15pthread_mutex_t(ptr noundef %4)
  ret void
}

; Function Attrs: mustprogress uwtable
define linkonce_odr hidden void @_ZNSt5mutex4lockEv(ptr noundef nonnull align 8 dereferenceable(40) %0) #0 comdat align 2 {
  %2 = alloca ptr, align 8
  %3 = alloca i32, align 4
  store ptr %0, ptr %2, align 8, !tbaa !166
  %4 = load ptr, ptr %2, align 8
  call void @llvm.lifetime.start.p0(i64 4, ptr %3) #5
  %5 = getelementptr inbounds nuw %"class.std::__mutex_base", ptr %4, i32 0, i32 0
  %6 = call noundef i32 @_ZL20__gthread_mutex_lockP15pthread_mutex_t(ptr noundef %5)
  store i32 %6, ptr %3, align 4, !tbaa !11
  %7 = load i32, ptr %3, align 4, !tbaa !11
  %8 = icmp ne i32 %7, 0
  br i1 %8, label %9, label %11

9:                                                ; preds = %1
  %10 = load i32, ptr %3, align 4, !tbaa !11
  call void @_ZSt20__throw_system_errori(i32 noundef %10) #37
  unreachable

11:                                               ; preds = %1
  call void @llvm.lifetime.end.p0(i64 4, ptr %3) #5
  ret void
}

; Function Attrs: mustprogress nounwind uwtable
define linkonce_odr hidden void @_ZNSt10lock_guardISt5mutexED2Ev(ptr noundef nonnull align 8 dereferenceable(8) %0) unnamed_addr #2 comdat align 2 personality ptr @__gxx_personality_v0 {
  %2 = alloca ptr, align 8
  store ptr %0, ptr %2, align 8, !tbaa !164
  %3 = load ptr, ptr %2, align 8
  %4 = getelementptr inbounds nuw %"class.std::lock_guard.38", ptr %3, i32 0, i32 0
  %5 = load ptr, ptr %4, align 8, !tbaa !168
  invoke void @_ZNSt5mutex6unlockEv(ptr noundef nonnull align 8 dereferenceable(40) %5)
          to label %6 unwind label %7

6:                                                ; preds = %1
  ret void

7:                                                ; preds = %1
  %8 = landingpad { ptr, i32 }
          catch ptr null
  %9 = extractvalue { ptr, i32 } %8, 0
  call void @__clang_call_terminate(ptr %9) #33
  unreachable
}

; Function Attrs: mustprogress uwtable
define linkonce_odr hidden void @_ZNSt10lock_guardISt5mutexEC2ERS0_(ptr noundef nonnull align 8 dereferenceable(8) %0, ptr noundef nonnull align 8 dereferenceable(40) %1) unnamed_addr #0 comdat align 2 {
  %3 = alloca ptr, align 8
  %4 = alloca ptr, align 8
  store ptr %0, ptr %3, align 8, !tbaa !164
  store ptr %1, ptr %4, align 8, !tbaa !166
  %5 = load ptr, ptr %3, align 8
  %6 = getelementptr inbounds nuw %"class.std::lock_guard.38", ptr %5, i32 0, i32 0
  %7 = load ptr, ptr %4, align 8, !tbaa !166
  store ptr %7, ptr %6, align 8, !tbaa !166
  %8 = getelementptr inbounds nuw %"class.std::lock_guard.38", ptr %5, i32 0, i32 0
  %9 = load ptr, ptr %8, align 8, !tbaa !168
  call void @_ZNSt5mutex4lockEv(ptr noundef nonnull align 8 dereferenceable(40) %9)
  ret void
}

; Function Attrs: inlinehint mustprogress uwtable
define linkonce_odr hidden void @_ZN6google14LogDestination16SetStderrLoggingENS_11LogSeverityE(i32 noundef %0) #9 comdat align 2 {
  %2 = alloca i32, align 4
  %3 = alloca %"class.std::lock_guard.38", align 8
  store i32 %0, ptr %2, align 4, !tbaa !51
  call void @llvm.lifetime.start.p0(i64 8, ptr %3) #5
  call void @_ZNSt10lock_guardISt5mutexEC2ERS0_(ptr noundef nonnull align 8 dereferenceable(8) %3, ptr noundef nonnull align 8 dereferenceable(40) @_ZN6googleL9log_mutexE)
  %4 = load i32, ptr %2, align 4, !tbaa !51
  store i32 %4, ptr @_ZN3fLI21FLAGS_stderrthresholdE, align 4, !tbaa !11
  call void @_ZNSt10lock_guardISt5mutexED2Ev(ptr noundef nonnull align 8 dereferenceable(8) %3) #5
  call void @llvm.lifetime.end.p0(i64 8, ptr %3) #5
  ret void
}

; Function Attrs: mustprogress uwtable
define void @_ZN6google16SetStderrLoggingENS_11LogSeverityE(i32 noundef %0) #0 {
  %2 = alloca i32, align 4
  store i32 %0, ptr %2, align 4, !tbaa !51
  %3 = load i32, ptr %2, align 4, !tbaa !51
  call void @_ZN6google14LogDestination16SetStderrLoggingENS_11LogSeverityE(i32 noundef %3)
  ret void
}