; Function Attrs: mustprogress uwtable
define void @_ZN6google16SetStderrLoggingENS_11LogSeverityE(i32 noundef %0) local_unnamed_addr #0 personality ptr @__gxx_personality_v0 {
  %2 = tail call noundef i32 @pthread_mutex_lock(ptr noundef nonnull align 8 dereferenceable(40) @_ZN6googleL9log_mutexE) #49
  %.not.i.i.i = icmp eq i32 %2, 0
  br i1 %.not.i.i.i, label %_ZN6google14LogDestination16SetStderrLoggingENS_11LogSeverityE.exit, label %3

3:                                                ; preds = %1
  tail call void @_ZSt20__throw_system_errori(i32 noundef %2) #52
  unreachable

_ZN6google14LogDestination16SetStderrLoggingENS_11LogSeverityE.exit: ; preds = %1
  store i32 %0, ptr @_ZN3fLI21FLAGS_stderrthresholdE, align 4, !tbaa !97
  %4 = tail call noundef i32 @pthread_mutex_unlock(ptr noundef nonnull align 8 dereferenceable(40) @_ZN6googleL9log_mutexE) #49
  ret void
}